target datalayout = "e-m:e-p270:32:32-p271:32:32-p272:64:64-i64:64-i128:128-f80:128-n8:16:32:64-S128"
target triple = "x86_64-pc-linux-gnu"

%struct.dsa_st = type { i32, i32, %struct.ffc_params_st, ptr, ptr, i32, ptr, %struct.CRYPTO_REF_COUNT, %struct.crypto_ex_data_st, ptr, ptr, ptr, ptr, i64 }
%struct.ffc_params_st = type { ptr, ptr, ptr, ptr, ptr, i64, i32, i32, i32, i32, i32, ptr, ptr, i32 }
%struct.CRYPTO_REF_COUNT = type { i32 }
%struct.crypto_ex_data_st = type { ptr, ptr }

@.str.2 = private unnamed_addr constant [34 x i8] c"../openssl/crypto/dsa/dsa_ameth.c\00", align 1
@__func__.old_dsa_priv_decode = private unnamed_addr constant [20 x i8] c"old_dsa_priv_decode\00", align 1

; Function Attrs: nounwind uwtable
define internal i32 @old_dsa_priv_decode(ptr noundef %0, ptr noundef %1, i32 noundef %2) #0 {
  %4 = alloca i32, align 4
  %5 = alloca ptr, align 8
  %6 = alloca ptr, align 8
  %7 = alloca i32, align 4
  %8 = alloca ptr, align 8
  %9 = alloca i32, align 4
  store ptr %0, ptr %5, align 8, !tbaa !3
  store ptr %1, ptr %6, align 8, !tbaa !58
  store i32 %2, ptr %7, align 4, !tbaa !16
  call void @llvm.lifetime.start.p0(i64 8, ptr %8) #3
  %10 = load ptr, ptr %6, align 8, !tbaa !58
  %11 = load i32, ptr %7, align 4, !tbaa !16
  %12 = sext i32 %11 to i64
  %13 = call ptr @d2i_DSAPrivateKey(ptr noundef null, ptr noundef %10, i64 noundef %12)
  store ptr %13, ptr %8, align 8, !tbaa !12
  %14 = icmp eq ptr %13, null
  br i1 %14, label %15, label %16

15:                                               ; preds = %3
  call void @ERR_new()
  call void @ERR_set_debug(ptr noundef @.str.2, i32 noundef 362, ptr noundef @__func__.old_dsa_priv_decode)
  call void (i32, i32, ptr, ...) @ERR_set_error(i32 noundef 10, i32 noundef 524298, ptr noundef null)
  store i32 0, ptr %4, align 4
  store i32 1, ptr %9, align 4
  br label %24

16:                                               ; preds = %3
  %17 = load ptr, ptr %8, align 8, !tbaa !12
  %18 = getelementptr inbounds nuw %struct.dsa_st, ptr %17, i32 0, i32 13
  %19 = load i64, ptr %18, align 8, !tbaa !36
  %20 = add i64 %19, 1
  store i64 %20, ptr %18, align 8, !tbaa !36
  %21 = load ptr, ptr %5, align 8, !tbaa !3
  %22 = load ptr, ptr %8, align 8, !tbaa !12
  %23 = call i32 @EVP_PKEY_assign(ptr noundef %21, i32 noundef 116, ptr noundef %22)
  store i32 1, ptr %4, align 4
  store i32 1, ptr %9, align 4
  br label %24

24:                                               ; preds = %16, %15
  call void @llvm.lifetime.end.p0(i64 8, ptr %8) #3
  %25 = load i32, ptr %4, align 4
  ret i32 %25
}