; Function Attrs: nounwind uwtable
define internal range(i32 0, 2) i32 @old_dsa_priv_decode(ptr noundef %0, ptr noundef %1, i32 noundef %2) #0 {
  %4 = sext i32 %2 to i64
  %5 = tail call ptr @d2i_DSAPrivateKey(ptr noundef null, ptr noundef %1, i64 noundef %4) #5
  %6 = icmp eq ptr %5, null
  br i1 %6, label %7, label %8

7:                                                ; preds = %3
  tail call void @ERR_new() #5
  tail call void @ERR_set_debug(ptr noundef nonnull @.str.2, i32 noundef 362, ptr noundef nonnull @__func__.old_dsa_priv_decode) #5
  tail call void (i32, i32, ptr, ...) @ERR_set_error(i32 noundef 10, i32 noundef 524298, ptr noundef null) #5
  br label %13

8:                                                ; preds = %3
  %9 = getelementptr inbounds nuw i8, ptr %5, i64 192
  %10 = load i64, ptr %9, align 8, !tbaa !28
  %11 = add i64 %10, 1
  store i64 %11, ptr %9, align 8, !tbaa !28
  %12 = tail call i32 @EVP_PKEY_assign(ptr noundef %0, i32 noundef 116, ptr noundef nonnull %5) #5
  br label %13

13:                                               ; preds = %8, %7
  %.0 = phi i32 [ 0, %7 ], [ 1, %8 ]
  ret i32 %.0
}